target datalayout = "e-m:e-p270:32:32-p271:32:32-p272:64:64-i64:64-i128:128-f80:128-n8:16:32:64-S128"
target triple = "x86_64-pc-linux-gnu"

%struct.ossl_param_st = type { ptr, i32, ptr, i64, i64 }

@opparam = internal global [2 x %struct.ossl_param_st] zeroinitializer, align 16
@.str.3 = private unnamed_addr constant [38 x i8] c"../openssl/test/evp_pkey_dhkem_test.c\00", align 1
@rctx = internal global [2 x ptr] zeroinitializer, align 16
@.str.50 = private unnamed_addr constant [2 x i8] c"1\00", align 1
@.str.74 = private unnamed_addr constant [2 x i8] c"0\00", align 1
@.str.80 = private unnamed_addr constant [40 x i8] c"EVP_PKEY_encapsulate_init(ctx, opparam)\00", align 1
@.str.81 = private unnamed_addr constant [56 x i8] c"EVP_PKEY_encapsulate(ctx, NULL, &enclen, NULL, &seclen)\00", align 1
@.str.82 = private unnamed_addr constant [54 x i8] c"EVP_PKEY_encapsulate(ctx, enc, &enclen, sec, &seclen)\00", align 1
@.str.83 = private unnamed_addr constant [40 x i8] c"EVP_PKEY_decapsulate_init(ctx, opparam)\00", align 1
@.str.84 = private unnamed_addr constant [53 x i8] c"EVP_PKEY_decapsulate(ctx, sec, &seclen, enc, enclen)\00", align 1

; Function Attrs: nounwind uwtable
define internal i32 @test_input_size_small(i32 noundef %0) #0 {
  %2 = alloca i32, align 4
  %3 = alloca i32, align 4
  %4 = alloca [256 x i8], align 16
  %5 = alloca [256 x i8], align 16
  %6 = alloca i64, align 8
  %7 = alloca i64, align 8
  %8 = alloca ptr, align 8
  store i32 %0, ptr %2, align 4, !tbaa !10
  call void @llvm.lifetime.start.p0(i64 4, ptr %3) #6
  store i32 0, ptr %3, align 4, !tbaa !10
  call void @llvm.lifetime.start.p0(i64 256, ptr %4) #6
  call void @llvm.lifetime.start.p0(i64 256, ptr %5) #6
  call void @llvm.lifetime.start.p0(i64 8, ptr %6) #6
  store i64 256, ptr %6, align 8, !tbaa !13
  call void @llvm.lifetime.start.p0(i64 8, ptr %7) #6
  store i64 256, ptr %7, align 8, !tbaa !13
  call void @llvm.lifetime.start.p0(i64 8, ptr %8) #6
  %9 = load i32, ptr %2, align 4, !tbaa !10
  %10 = sext i32 %9 to i64
  %11 = getelementptr inbounds [2 x ptr], ptr @rctx, i64 0, i64 %10
  %12 = load ptr, ptr %11, align 8, !tbaa !19
  store ptr %12, ptr %8, align 8, !tbaa !19
  %13 = load ptr, ptr %8, align 8, !tbaa !19
  %14 = call i32 @EVP_PKEY_encapsulate_init(ptr noundef %13, ptr noundef @opparam)
  %15 = call i32 @test_int_eq(ptr noundef @.str.3, i32 noundef 215, ptr noundef @.str.80, ptr noundef @.str.50, i32 noundef %14, i32 noundef 1)
  %16 = icmp ne i32 %15, 0
  br i1 %16, label %17, label %22

17:                                               ; preds = %1
  %18 = load ptr, ptr %8, align 8, !tbaa !19
  %19 = call i32 @EVP_PKEY_encapsulate(ptr noundef %18, ptr noundef null, ptr noundef %7, ptr noundef null, ptr noundef %6)
  %20 = call i32 @test_int_eq(ptr noundef @.str.3, i32 noundef 217, ptr noundef @.str.81, ptr noundef @.str.50, i32 noundef %19, i32 noundef 1)
  %21 = icmp ne i32 %20, 0
  br i1 %21, label %23, label %22

22:                                               ; preds = %17, %1
  br label %75

23:                                               ; preds = %17
  %24 = load i64, ptr %7, align 8, !tbaa !13
  %25 = add i64 %24, -1
  store i64 %25, ptr %7, align 8, !tbaa !13
  %26 = load ptr, ptr %8, align 8, !tbaa !19
  %27 = getelementptr inbounds [256 x i8], ptr %5, i64 0, i64 0
  %28 = getelementptr inbounds [256 x i8], ptr %4, i64 0, i64 0
  %29 = call i32 @EVP_PKEY_encapsulate(ptr noundef %26, ptr noundef %27, ptr noundef %7, ptr noundef %28, ptr noundef %6)
  %30 = call i32 @test_int_eq(ptr noundef @.str.3, i32 noundef 223, ptr noundef @.str.82, ptr noundef @.str.74, i32 noundef %29, i32 noundef 0)
  %31 = icmp ne i32 %30, 0
  br i1 %31, label %33, label %32

32:                                               ; preds = %23
  br label %75

33:                                               ; preds = %23
  %34 = load i64, ptr %7, align 8, !tbaa !13
  %35 = add i64 %34, 1
  store i64 %35, ptr %7, align 8, !tbaa !13
  %36 = load i64, ptr %6, align 8, !tbaa !13
  %37 = add i64 %36, -1
  store i64 %37, ptr %6, align 8, !tbaa !13
  %38 = load ptr, ptr %8, align 8, !tbaa !19
  %39 = getelementptr inbounds [256 x i8], ptr %5, i64 0, i64 0
  %40 = getelementptr inbounds [256 x i8], ptr %4, i64 0, i64 0
  %41 = call i32 @EVP_PKEY_encapsulate(ptr noundef %38, ptr noundef %39, ptr noundef %7, ptr noundef %40, ptr noundef %6)
  %42 = call i32 @test_int_eq(ptr noundef @.str.3, i32 noundef 228, ptr noundef @.str.82, ptr noundef @.str.74, i32 noundef %41, i32 noundef 0)
  %43 = icmp ne i32 %42, 0
  br i1 %43, label %45, label %44

44:                                               ; preds = %33
  br label %75

45:                                               ; preds = %33
  %46 = load i64, ptr %6, align 8, !tbaa !13
  %47 = add i64 %46, 1
  store i64 %47, ptr %6, align 8, !tbaa !13
  %48 = load ptr, ptr %8, align 8, !tbaa !19
  %49 = call i32 @EVP_PKEY_decapsulate_init(ptr noundef %48, ptr noundef @opparam)
  %50 = call i32 @test_int_eq(ptr noundef @.str.3, i32 noundef 231, ptr noundef @.str.83, ptr noundef @.str.50, i32 noundef %49, i32 noundef 1)
  %51 = icmp ne i32 %50, 0
  br i1 %51, label %53, label %52

52:                                               ; preds = %45
  br label %75

53:                                               ; preds = %45
  %54 = load i64, ptr %6, align 8, !tbaa !13
  %55 = add i64 %54, -1
  store i64 %55, ptr %6, align 8, !tbaa !13
  %56 = load ptr, ptr %8, align 8, !tbaa !19
  %57 = getelementptr inbounds [256 x i8], ptr %4, i64 0, i64 0
  %58 = getelementptr inbounds [256 x i8], ptr %5, i64 0, i64 0
  %59 = load i64, ptr %7, align 8, !tbaa !13
  %60 = call i32 @EVP_PKEY_decapsulate(ptr noundef %56, ptr noundef %57, ptr noundef %6, ptr noundef %58, i64 noundef %59)
  %61 = call i32 @test_int_eq(ptr noundef @.str.3, i32 noundef 235, ptr noundef @.str.84, ptr noundef @.str.74, i32 noundef %60, i32 noundef 0)
  %62 = icmp ne i32 %61, 0
  br i1 %62, label %64, label %63

63:                                               ; preds = %53
  br label %75

64:                                               ; preds = %53
  %65 = load i64, ptr %6, align 8, !tbaa !13
  %66 = add i64 %65, 1
  store i64 %66, ptr %6, align 8, !tbaa !13
  %67 = load i64, ptr %7, align 8, !tbaa !13
  %68 = add i64 %67, -1
  store i64 %68, ptr %7, align 8, !tbaa !13
  %69 = load ptr, ptr %8, align 8, !tbaa !19
  %70 = getelementptr inbounds [256 x i8], ptr %4, i64 0, i64 0
  %71 = getelementptr inbounds [256 x i8], ptr %5, i64 0, i64 0
  %72 = load i64, ptr %7, align 8, !tbaa !13
  %73 = call i32 @EVP_PKEY_decapsulate(ptr noundef %69, ptr noundef %70, ptr noundef %6, ptr noundef %71, i64 noundef %72)
  %74 = call i32 @test_int_eq(ptr noundef @.str.3, i32 noundef 240, ptr noundef @.str.84, ptr noundef @.str.74, i32 noundef %73, i32 noundef 0)
  store i32 %74, ptr %3, align 4, !tbaa !10
  br label %75

75:                                               ; preds = %64, %63, %52, %44, %32, %22
  %76 = load i32, ptr %3, align 4, !tbaa !10
  call void @llvm.lifetime.end.p0(i64 8, ptr %8) #6
  call void @llvm.lifetime.end.p0(i64 8, ptr %7) #6
  call void @llvm.lifetime.end.p0(i64 8, ptr %6) #6
  call void @llvm.lifetime.end.p0(i64 256, ptr %5) #6
  call void @llvm.lifetime.end.p0(i64 256, ptr %4) #6
  call void @llvm.lifetime.end.p0(i64 4, ptr %3) #6
  ret i32 %76
}