; Function Attrs: nounwind uwtable
define internal i32 @test_input_size_small(i32 noundef %0) #0 {
  %2 = alloca [256 x i8], align 16
  %3 = alloca [256 x i8], align 16
  %4 = alloca i64, align 8
  %5 = alloca i64, align 8
  call void @llvm.lifetime.start.p0(i64 256, ptr nonnull %2) #5
  call void @llvm.lifetime.start.p0(i64 256, ptr nonnull %3) #5
  call void @llvm.lifetime.start.p0(i64 8, ptr nonnull %4) #5
  store i64 256, ptr %4, align 8, !tbaa !13
  call void @llvm.lifetime.start.p0(i64 8, ptr nonnull %5) #5
  store i64 256, ptr %5, align 8, !tbaa !13
  %6 = sext i32 %0 to i64
  %7 = getelementptr inbounds [2 x ptr], ptr @rctx, i64 0, i64 %6
  %8 = load ptr, ptr %7, align 8, !tbaa !19
  %9 = tail call i32 @EVP_PKEY_encapsulate_init(ptr noundef %8, ptr noundef nonnull @opparam) #5
  %10 = tail call i32 @test_int_eq(ptr noundef nonnull @.str.3, i32 noundef 215, ptr noundef nonnull @.str.80, ptr noundef nonnull @.str.50, i32 noundef %9, i32 noundef 1) #5
  %.not = icmp eq i32 %10, 0
  br i1 %.not, label %44, label %11

11:                                               ; preds = %1
  %12 = call i32 @EVP_PKEY_encapsulate(ptr noundef %8, ptr noundef null, ptr noundef nonnull %5, ptr noundef null, ptr noundef nonnull %4) #5
  %13 = call i32 @test_int_eq(ptr noundef nonnull @.str.3, i32 noundef 217, ptr noundef nonnull @.str.81, ptr noundef nonnull @.str.50, i32 noundef %12, i32 noundef 1) #5
  %.not8 = icmp eq i32 %13, 0
  br i1 %.not8, label %44, label %14

14:                                               ; preds = %11
  %15 = load i64, ptr %5, align 8, !tbaa !13
  %16 = add i64 %15, -1
  store i64 %16, ptr %5, align 8, !tbaa !13
  %17 = call i32 @EVP_PKEY_encapsulate(ptr noundef %8, ptr noundef nonnull %3, ptr noundef nonnull %5, ptr noundef nonnull %2, ptr noundef nonnull %4) #5
  %18 = call i32 @test_int_eq(ptr noundef nonnull @.str.3, i32 noundef 223, ptr noundef nonnull @.str.82, ptr noundef nonnull @.str.74, i32 noundef %17, i32 noundef 0) #5
  %.not9 = icmp eq i32 %18, 0
  br i1 %.not9, label %44, label %19

19:                                               ; preds = %14
  %20 = load i64, ptr %5, align 8, !tbaa !13
  %21 = add i64 %20, 1
  store i64 %21, ptr %5, align 8, !tbaa !13
  %22 = load i64, ptr %4, align 8, !tbaa !13
  %23 = add i64 %22, -1
  store i64 %23, ptr %4, align 8, !tbaa !13
  %24 = call i32 @EVP_PKEY_encapsulate(ptr noundef %8, ptr noundef nonnull %3, ptr noundef nonnull %5, ptr noundef nonnull %2, ptr noundef nonnull %4) #5
  %25 = call i32 @test_int_eq(ptr noundef nonnull @.str.3, i32 noundef 228, ptr noundef nonnull @.str.82, ptr noundef nonnull @.str.74, i32 noundef %24, i32 noundef 0) #5
  %.not10 = icmp eq i32 %25, 0
  br i1 %.not10, label %44, label %26

26:                                               ; preds = %19
  %27 = load i64, ptr %4, align 8, !tbaa !13
  %28 = add i64 %27, 1
  store i64 %28, ptr %4, align 8, !tbaa !13
  %29 = call i32 @EVP_PKEY_decapsulate_init(ptr noundef %8, ptr noundef nonnull @opparam) #5
  %30 = call i32 @test_int_eq(ptr noundef nonnull @.str.3, i32 noundef 231, ptr noundef nonnull @.str.83, ptr noundef nonnull @.str.50, i32 noundef %29, i32 noundef 1) #5
  %.not11 = icmp eq i32 %30, 0
  br i1 %.not11, label %44, label %31

31:                                               ; preds = %26
  %32 = load i64, ptr %4, align 8, !tbaa !13
  %33 = add i64 %32, -1
  store i64 %33, ptr %4, align 8, !tbaa !13
  %34 = load i64, ptr %5, align 8, !tbaa !13
  %35 = call i32 @EVP_PKEY_decapsulate(ptr noundef %8, ptr noundef nonnull %2, ptr noundef nonnull %4, ptr noundef nonnull %3, i64 noundef %34) #5
  %36 = call i32 @test_int_eq(ptr noundef nonnull @.str.3, i32 noundef 235, ptr noundef nonnull @.str.84, ptr noundef nonnull @.str.74, i32 noundef %35, i32 noundef 0) #5
  %.not12 = icmp eq i32 %36, 0
  br i1 %.not12, label %44, label %37

37:                                               ; preds = %31
  %38 = load i64, ptr %4, align 8, !tbaa !13
  %39 = add i64 %38, 1
  store i64 %39, ptr %4, align 8, !tbaa !13
  %40 = load i64, ptr %5, align 8, !tbaa !13
  %41 = add i64 %40, -1
  store i64 %41, ptr %5, align 8, !tbaa !13
  %42 = call i32 @EVP_PKEY_decapsulate(ptr noundef %8, ptr noundef nonnull %2, ptr noundef nonnull %4, ptr noundef nonnull %3, i64 noundef %41) #5
  %43 = call i32 @test_int_eq(ptr noundef nonnull @.str.3, i32 noundef 240, ptr noundef nonnull @.str.84, ptr noundef nonnull @.str.74, i32 noundef %42, i32 noundef 0) #5
  br label %44

44:                                               ; preds = %31, %26, %19, %14, %1, %11, %37
  %.0 = phi i32 [ %43, %37 ], [ 0, %31 ], [ 0, %26 ], [ 0, %19 ], [ 0, %14 ], [ 0, %11 ], [ 0, %1 ]
  call void @llvm.lifetime.end.p0(i64 8, ptr nonnull %5) #5
  call void @llvm.lifetime.end.p0(i64 8, ptr nonnull %4) #5
  call void @llvm.lifetime.end.p0(i64 256, ptr nonnull %3) #5
  call void @llvm.lifetime.end.p0(i64 256, ptr nonnull %2) #5
  ret i32 %.0
}